; Function Attrs: mustprogress uwtable
define noundef i64 @_ZN5folly4test21DeterministicSchedule13getRandNumberEm(i64 noundef %0) local_unnamed_addr #7 align 2 {
  %2 = alloca %"class.folly::ThreadLocalPRNG", align 1
  %3 = alloca i64, align 8
  %4 = tail call align 8 ptr @llvm.threadlocal.address.p0(ptr align 8 @_ZZN5folly20SingletonThreadLocalINS_4test12_GLOBAL__N_114PerThreadStateENS_6detail10DefaultTagENS4_11DefaultMakeIS3_EEvE3getEvE5cache)
  %5 = load ptr, ptr %4, align 8, !tbaa !43
  %.not.i = icmp eq ptr %5, null
  br i1 %.not.i, label %6, label %_ZN5folly20SingletonThreadLocalINS_4test12_GLOBAL__N_114PerThreadStateENS_6detail10DefaultTagENS4_11DefaultMakeIS3_EEvE3getEv.exit, !prof !45

6:                                                ; preds = %1
  %7 = tail call fastcc noundef nonnull align 8 dereferenceable(168) ptr @_ZN5folly20SingletonThreadLocalINS_4test12_GLOBAL__N_114PerThreadStateENS_6detail10DefaultTagENS4_11DefaultMakeIS3_EEvE7getSlowERNS4_25SingletonThreadLocalState10LocalCacheE(ptr noundef nonnull align 8 dereferenceable(8) %4)
  br label %_ZN5folly20SingletonThreadLocalINS_4test12_GLOBAL__N_114PerThreadStateENS_6detail10DefaultTagENS4_11DefaultMakeIS3_EEvE3getEv.exit

_ZN5folly20SingletonThreadLocalINS_4test12_GLOBAL__N_114PerThreadStateENS_6detail10DefaultTagENS4_11DefaultMakeIS3_EEvE3getEv.exit: ; preds = %1, %6
  %8 = phi ptr [ %7, %6 ], [ %5, %1 ]
  %9 = getelementptr inbounds nuw i8, ptr %8, i64 8
  %10 = load ptr, ptr %9, align 8, !tbaa !46
  %.not = icmp eq ptr %10, null
  br i1 %.not, label %18, label %11

11:                                               ; preds = %_ZN5folly20SingletonThreadLocalINS_4test12_GLOBAL__N_114PerThreadStateENS_6detail10DefaultTagENS4_11DefaultMakeIS3_EEvE3getEv.exit
  call void @llvm.lifetime.start.p0(i64 8, ptr nonnull %3)
  store i64 %0, ptr %3, align 8, !tbaa !31
  %12 = getelementptr inbounds nuw i8, ptr %10, i64 16
  %13 = load ptr, ptr %12, align 8, !tbaa !63
  %.not.i.i = icmp eq ptr %13, null
  br i1 %.not.i.i, label %14, label %_ZNKSt8functionIFmmEEclEm.exit

14:                                               ; preds = %11
  tail call void @_ZSt25__throw_bad_function_callv() #38
  unreachable

_ZNKSt8functionIFmmEEclEm.exit:                   ; preds = %11
  %15 = getelementptr inbounds nuw i8, ptr %10, i64 24
  %16 = load ptr, ptr %15, align 8, !tbaa !61
  %17 = call noundef i64 %16(ptr noundef nonnull align 8 dereferenceable(32) %10, ptr noundef nonnull align 8 dereferenceable(8) %3)
  call void @llvm.lifetime.end.p0(i64 8, ptr nonnull %3)
  br label %22

18:                                               ; preds = %_ZN5folly20SingletonThreadLocalINS_4test12_GLOBAL__N_114PerThreadStateENS_6detail10DefaultTagENS4_11DefaultMakeIS3_EEvE3getEv.exit
  call void @llvm.lifetime.start.p0(i64 1, ptr nonnull %2) #18
  %19 = call noundef i32 @_ZN5folly15ThreadLocalPRNGclEv(ptr noundef nonnull align 1 dereferenceable(1) %2)
  call void @llvm.lifetime.end.p0(i64 1, ptr nonnull %2) #18
  %20 = zext i32 %19 to i64
  %21 = urem i64 %20, %0
  br label %22

22:                                               ; preds = %18, %_ZNKSt8functionIFmmEEclEm.exit
  %.0 = phi i64 [ %17, %_ZNKSt8functionIFmmEEclEm.exit ], [ %21, %18 ]
  ret i64 %.0
}